target datalayout = "e-m:e-p270:32:32-p271:32:32-p272:64:64-i64:64-i128:128-f80:128-n8:16:32:64-S128"
target triple = "x86_64-pc-linux-gnu"

%struct.H5HF_free_section_t = type { %struct.H5FS_section_info_t, %union.anon }
%struct.H5FS_section_info_t = type { i64, i64, i32, i32 }
%union.anon = type { %struct.anon.1 }
%struct.anon.1 = type { %union.anon.2, i32, i32, i32, ptr, i32, i64, i32, i32, i32, ptr, i32, ptr }
%union.anon.2 = type { ptr }
%struct.H5C_cache_entry_t = type { ptr, i64, i64, ptr, i8, ptr, i8, i8, i8, i8, i32, i8, i8, i8, i8, i8, i32, ptr, i32, i32, i32, i32, i32, i8, i8, ptr, ptr, ptr, ptr, ptr, ptr, i8, i32, i8, i64, ptr, i64, i64, i32, i8, i32, i32, i8, ptr, ptr, ptr }
%struct.H5HF_indirect_t = type { %struct.H5C_cache_entry_t, i64, ptr, ptr, ptr, i32, i64, i64, i32, i32, i32, i32, ptr, i8, i64, ptr, ptr }
%struct.anon.0 = type { ptr, i32, i32, i32, i8 }

@H5HF_init_g = external global i8, align 1
@H5_libterm_g = external global i8, align 1
@.str = private unnamed_addr constant [105 x i8] c"generated/home/dtcxzyw/WorkSpace/Projects/compilers/llvm-opt-benchmark/bench/hdf5/hdf5/src/H5HFsection.c\00", align 1
@H5E_HEAP_g = external global i64, align 8
@H5E_CANTDEC_g = external global i64, align 8
@.str.30 = private unnamed_addr constant [57 x i8] c"can't decrement reference count on shared indirect block\00", align 1
@__func__.H5HF__sect_row_parent_removed = private unnamed_addr constant [30 x i8] c"H5HF__sect_row_parent_removed\00", align 1

; Function Attrs: nounwind uwtable
define internal i32 @H5HF__sect_row_parent_removed(ptr noundef %0) #0 {
  %2 = alloca ptr, align 8
  %3 = alloca i64, align 8
  %4 = alloca i32, align 4
  %5 = alloca i32, align 4
  %6 = alloca i8, align 1
  store ptr %0, ptr %2, align 8, !tbaa !23
  call void @llvm.lifetime.start.p0(i64 8, ptr %3) #7
  call void @llvm.lifetime.start.p0(i64 4, ptr %4) #7
  call void @llvm.lifetime.start.p0(i64 4, ptr %5) #7
  store i32 0, ptr %5, align 4, !tbaa !11
  call void @llvm.lifetime.start.p0(i64 1, ptr %6) #7
  store i8 0, ptr %6, align 1, !tbaa !13
  %7 = load i8, ptr @H5HF_init_g, align 1, !tbaa !13, !range !15, !noundef !16
  %8 = trunc i8 %7 to i1
  br i1 %8, label %13, label %9

9:                                                ; preds = %1
  %10 = load i8, ptr @H5_libterm_g, align 1, !tbaa !13, !range !15, !noundef !16
  %11 = trunc i8 %10 to i1
  %12 = xor i1 %11, true
  br label %13

13:                                               ; preds = %9, %1
  %14 = phi i1 [ true, %1 ], [ %12, %9 ]
  %15 = xor i1 %14, true
  %16 = xor i1 %15, true
  %17 = zext i1 %16 to i32
  %18 = sext i32 %17 to i64
  %19 = call i64 @llvm.expect.i64(i64 %18, i64 1)
  %20 = icmp ne i64 %19, 0
  br i1 %20, label %21, label %111

21:                                               ; preds = %13
  %22 = load ptr, ptr %2, align 8, !tbaa !23
  %23 = getelementptr inbounds nuw %struct.H5HF_free_section_t, ptr %22, i32 0, i32 1
  %24 = getelementptr inbounds nuw %struct.anon.0, ptr %23, i32 0, i32 0
  %25 = load ptr, ptr %24, align 8, !tbaa !63
  %26 = getelementptr inbounds nuw %struct.H5HF_free_section_t, ptr %25, i32 0, i32 1
  %27 = getelementptr inbounds nuw %struct.anon.1, ptr %26, i32 0, i32 0
  %28 = load ptr, ptr %27, align 8, !tbaa !63
  %29 = getelementptr inbounds nuw %struct.H5HF_indirect_t, ptr %28, i32 0, i32 14
  %30 = load i64, ptr %29, align 8, !tbaa !88
  store i64 %30, ptr %3, align 8, !tbaa !25
  %31 = load ptr, ptr %2, align 8, !tbaa !23
  %32 = getelementptr inbounds nuw %struct.H5HF_free_section_t, ptr %31, i32 0, i32 1
  %33 = getelementptr inbounds nuw %struct.anon.0, ptr %32, i32 0, i32 0
  %34 = load ptr, ptr %33, align 8, !tbaa !63
  %35 = getelementptr inbounds nuw %struct.H5HF_free_section_t, ptr %34, i32 0, i32 1
  %36 = getelementptr inbounds nuw %struct.anon.1, ptr %35, i32 0, i32 0
  %37 = load ptr, ptr %36, align 8, !tbaa !63
  %38 = call i32 @H5HF__iblock_decr(ptr noundef %37)
  %39 = icmp slt i32 %38, 0
  br i1 %39, label %40, label %59

40:                                               ; preds = %21
  br label %41

41:                                               ; preds = %40
  br label %42

42:                                               ; preds = %41
  br label %43

43:                                               ; preds = %42
  %44 = load i64, ptr @H5E_HEAP_g, align 8, !tbaa !25
  %45 = load i64, ptr @H5E_CANTDEC_g, align 8, !tbaa !25
  %46 = call i32 (ptr, ptr, i32, i64, i64, ptr, ...) @H5E_printf_stack(ptr noundef @.str, ptr noundef @__func__.H5HF__sect_row_parent_removed, i32 noundef 1445, i64 noundef %44, i64 noundef %45, ptr noundef @.str.30)
  br label %47

47:                                               ; preds = %43
  br label %48

48:                                               ; preds = %47
  store i8 1, ptr %6, align 1, !tbaa !13
  %49 = load i8, ptr %6, align 1, !tbaa !13, !range !15, !noundef !16
  %50 = trunc i8 %49 to i1
  %51 = zext i1 %50 to i8
  store i8 %51, ptr %6, align 1, !tbaa !13
  br label %52

52:                                               ; preds = %48
  br label %53

53:                                               ; preds = %52
  br label %54

54:                                               ; preds = %53
  store i32 -1, ptr %5, align 4, !tbaa !11
  br label %110

55:                                               ; No predecessors!
  br label %56

56:                                               ; preds = %55
  br label %57

57:                                               ; preds = %56
  br label %58

58:                                               ; preds = %57
  br label %59

59:                                               ; preds = %58, %21
  %60 = load i64, ptr %3, align 8, !tbaa !25
  %61 = load ptr, ptr %2, align 8, !tbaa !23
  %62 = getelementptr inbounds nuw %struct.H5HF_free_section_t, ptr %61, i32 0, i32 1
  %63 = getelementptr inbounds nuw %struct.anon.0, ptr %62, i32 0, i32 0
  %64 = load ptr, ptr %63, align 8, !tbaa !63
  %65 = getelementptr inbounds nuw %struct.H5HF_free_section_t, ptr %64, i32 0, i32 1
  %66 = getelementptr inbounds nuw %struct.anon.1, ptr %65, i32 0, i32 0
  store i64 %60, ptr %66, align 8, !tbaa !63
  %67 = load ptr, ptr %2, align 8, !tbaa !23
  %68 = getelementptr inbounds nuw %struct.H5HF_free_section_t, ptr %67, i32 0, i32 1
  %69 = getelementptr inbounds nuw %struct.anon.0, ptr %68, i32 0, i32 0
  %70 = load ptr, ptr %69, align 8, !tbaa !63
  %71 = getelementptr inbounds nuw %struct.H5HF_free_section_t, ptr %70, i32 0, i32 1
  %72 = getelementptr inbounds nuw %struct.anon.1, ptr %71, i32 0, i32 7
  store i32 0, ptr %72, align 8, !tbaa !63
  store i32 0, ptr %4, align 4, !tbaa !11
  br label %73

73:                                               ; preds = %97, %59
  %74 = load i32, ptr %4, align 4, !tbaa !11
  %75 = load ptr, ptr %2, align 8, !tbaa !23
  %76 = getelementptr inbounds nuw %struct.H5HF_free_section_t, ptr %75, i32 0, i32 1
  %77 = getelementptr inbounds nuw %struct.anon.0, ptr %76, i32 0, i32 0
  %78 = load ptr, ptr %77, align 8, !tbaa !63
  %79 = getelementptr inbounds nuw %struct.H5HF_free_section_t, ptr %78, i32 0, i32 1
  %80 = getelementptr inbounds nuw %struct.anon.1, ptr %79, i32 0, i32 9
  %81 = load i32, ptr %80, align 8, !tbaa !63
  %82 = icmp ult i32 %74, %81
  br i1 %82, label %83, label %100

83:                                               ; preds = %73
  %84 = load ptr, ptr %2, align 8, !tbaa !23
  %85 = getelementptr inbounds nuw %struct.H5HF_free_section_t, ptr %84, i32 0, i32 1
  %86 = getelementptr inbounds nuw %struct.anon.0, ptr %85, i32 0, i32 0
  %87 = load ptr, ptr %86, align 8, !tbaa !63
  %88 = getelementptr inbounds nuw %struct.H5HF_free_section_t, ptr %87, i32 0, i32 1
  %89 = getelementptr inbounds nuw %struct.anon.1, ptr %88, i32 0, i32 10
  %90 = load ptr, ptr %89, align 8, !tbaa !63
  %91 = load i32, ptr %4, align 4, !tbaa !11
  %92 = zext i32 %91 to i64
  %93 = getelementptr inbounds nuw ptr, ptr %90, i64 %92
  %94 = load ptr, ptr %93, align 8, !tbaa !23
  %95 = getelementptr inbounds nuw %struct.H5HF_free_section_t, ptr %94, i32 0, i32 0
  %96 = getelementptr inbounds nuw %struct.H5FS_section_info_t, ptr %95, i32 0, i32 3
  store i32 1, ptr %96, align 4, !tbaa !38
  br label %97

97:                                               ; preds = %83
  %98 = load i32, ptr %4, align 4, !tbaa !11
  %99 = add i32 %98, 1
  store i32 %99, ptr %4, align 4, !tbaa !11
  br label %73, !llvm.loop !89

100:                                              ; preds = %73
  %101 = load ptr, ptr %2, align 8, !tbaa !23
  %102 = getelementptr inbounds nuw %struct.H5HF_free_section_t, ptr %101, i32 0, i32 1
  %103 = getelementptr inbounds nuw %struct.anon.0, ptr %102, i32 0, i32 0
  %104 = load ptr, ptr %103, align 8, !tbaa !63
  %105 = getelementptr inbounds nuw %struct.H5HF_free_section_t, ptr %104, i32 0, i32 0
  %106 = getelementptr inbounds nuw %struct.H5FS_section_info_t, ptr %105, i32 0, i32 3
  store i32 1, ptr %106, align 4, !tbaa !38
  %107 = load ptr, ptr %2, align 8, !tbaa !23
  %108 = getelementptr inbounds nuw %struct.H5HF_free_section_t, ptr %107, i32 0, i32 0
  %109 = getelementptr inbounds nuw %struct.H5FS_section_info_t, ptr %108, i32 0, i32 3
  store i32 1, ptr %109, align 4, !tbaa !38
  br label %110

110:                                              ; preds = %100, %54
  br label %111

111:                                              ; preds = %110, %13
  %112 = load i32, ptr %5, align 4, !tbaa !11
  call void @llvm.lifetime.end.p0(i64 1, ptr %6) #7
  call void @llvm.lifetime.end.p0(i64 4, ptr %5) #7
  call void @llvm.lifetime.end.p0(i64 4, ptr %4) #7
  call void @llvm.lifetime.end.p0(i64 8, ptr %3) #7
  ret i32 %112
}