; Function Attrs: nounwind uwtable
define internal fastcc range(i32 -1, 1) i32 @H5HF__sect_row_parent_removed(ptr noundef captures(none) %0) unnamed_addr #0 {
  %2 = load i8, ptr @H5HF_init_g, align 1, !tbaa !3, !range !7, !noundef !8
  %3 = trunc nuw i8 %2 to i1
  %4 = load i8, ptr @H5_libterm_g, align 1, !range !7
  %5 = trunc nuw i8 %4 to i1
  %6 = xor i1 %5, true
  %7 = select i1 %3, i1 true, i1 %6
  br i1 %7, label %8, label %42, !prof !9

8:                                                ; preds = %1
  %9 = getelementptr inbounds nuw i8, ptr %0, i64 24
  %10 = load ptr, ptr %9, align 8, !tbaa !26
  %11 = getelementptr inbounds nuw i8, ptr %10, i64 24
  %12 = load ptr, ptr %11, align 8, !tbaa !26
  %13 = getelementptr inbounds nuw i8, ptr %12, i64 336
  %14 = load i64, ptr %13, align 8, !tbaa !64
  %15 = tail call i32 @H5HF__iblock_decr(ptr noundef %12) #13
  %16 = icmp slt i32 %15, 0
  br i1 %16, label %17, label %21

17:                                               ; preds = %8
  %18 = load i64, ptr @H5E_HEAP_g, align 8, !tbaa !18
  %19 = load i64, ptr @H5E_CANTDEC_g, align 8, !tbaa !18
  %20 = tail call i32 (ptr, ptr, i32, i64, i64, ptr, ...) @H5E_printf_stack(ptr noundef nonnull @.str, ptr noundef nonnull @__func__.H5HF__sect_row_parent_removed, i32 noundef 1445, i64 noundef %18, i64 noundef %19, ptr noundef nonnull @.str.30) #13
  br label %42

21:                                               ; preds = %8
  %22 = load ptr, ptr %9, align 8, !tbaa !26
  %23 = getelementptr inbounds nuw i8, ptr %22, i64 24
  store i64 %14, ptr %23, align 8, !tbaa !26
  %24 = load ptr, ptr %9, align 8, !tbaa !26
  %25 = getelementptr inbounds nuw i8, ptr %24, i64 72
  store i32 0, ptr %25, align 8, !tbaa !26
  %26 = load ptr, ptr %9, align 8, !tbaa !26
  %27 = getelementptr inbounds nuw i8, ptr %26, i64 80
  %28 = load i32, ptr %27, align 8, !tbaa !26
  %.not = icmp eq i32 %28, 0
  br i1 %.not, label %._crit_edge, label %.lr.ph

.lr.ph:                                           ; preds = %21, %.lr.ph
  %indvars.iv = phi i64 [ %indvars.iv.next, %.lr.ph ], [ 0, %21 ]
  %29 = phi ptr [ %35, %.lr.ph ], [ %26, %21 ]
  %30 = getelementptr inbounds nuw i8, ptr %29, i64 88
  %31 = load ptr, ptr %30, align 8, !tbaa !26
  %32 = getelementptr inbounds nuw ptr, ptr %31, i64 %indvars.iv
  %33 = load ptr, ptr %32, align 8, !tbaa !16
  %34 = getelementptr inbounds nuw i8, ptr %33, i64 20
  store i32 1, ptr %34, align 4, !tbaa !25
  %indvars.iv.next = add nuw nsw i64 %indvars.iv, 1
  %35 = load ptr, ptr %9, align 8, !tbaa !26
  %36 = getelementptr inbounds nuw i8, ptr %35, i64 80
  %37 = load i32, ptr %36, align 8, !tbaa !26
  %38 = zext i32 %37 to i64
  %39 = icmp samesign ult i64 %indvars.iv.next, %38
  br i1 %39, label %.lr.ph, label %._crit_edge, !llvm.loop !79

._crit_edge:                                      ; preds = %.lr.ph, %21
  %.lcssa = phi ptr [ %26, %21 ], [ %35, %.lr.ph ]
  %40 = getelementptr inbounds nuw i8, ptr %.lcssa, i64 20
  store i32 1, ptr %40, align 4, !tbaa !25
  %41 = getelementptr inbounds nuw i8, ptr %0, i64 20
  store i32 1, ptr %41, align 4, !tbaa !25
  br label %42

42:                                               ; preds = %17, %._crit_edge, %1
  %.0 = phi i32 [ -1, %17 ], [ 0, %._crit_edge ], [ 0, %1 ]
  ret i32 %.0
}